; Function Attrs: mustprogress nofree norecurse nosync nounwind willreturn memory(argmem: readwrite) uwtable
define void @_ZN7glslang15HlslTokenStream15pushTokenBufferERKNS_9HlslTokenE(ptr nocapture noundef nonnull align 8 dereferenceable(324) %0, ptr nocapture noundef nonnull readonly align 8 dereferenceable(40) %1) local_unnamed_addr #0 align 2 {
  %3 = getelementptr inbounds i8, ptr %0, i64 240
  %4 = getelementptr inbounds i8, ptr %0, i64 320
  %5 = load i32, ptr %4, align 8
  %6 = sext i32 %5 to i64
  %7 = getelementptr inbounds [2 x %"struct.glslang::HlslToken"], ptr %3, i64 0, i64 %6
  tail call void @llvm.memcpy.p0.p0.i64(ptr noundef nonnull align 8 dereferenceable(40) %7, ptr noundef nonnull align 8 dereferenceable(40) %1, i64 40, i1 false)
  %8 = load i32, ptr %4, align 8
  %9 = add nsw i32 %8, 1
  %10 = srem i32 %9, 2
  store i32 %10, ptr %4, align 8
  ret void
}